target datalayout = "e-m:e-p270:32:32-p271:32:32-p272:64:64-i64:64-i128:128-f80:128-n8:16:32:64-S128"
target triple = "x86_64-pc-linux-gnu"

%struct.KVMRouteChange = type { ptr, i32 }
%struct.MemoryRegion = type { %struct.Object, i8, i8, i8, i8, i8, i8, i8, i8, i8, i8, ptr, ptr, ptr, ptr, ptr, ptr, i32, i128, i64, ptr, i64, i8, i8, i8, i8, ptr, i64, i32, %union.anon, %union.anon.0, %union.anon.1, ptr, i32, ptr, ptr, i8 }
%struct.Object = type { ptr, ptr, ptr, i32, ptr }
%union.anon = type { %struct.QTailQLink }
%struct.QTailQLink = type { ptr, ptr }
%union.anon.0 = type { %struct.QTailQLink }
%union.anon.1 = type { %struct.QTailQLink }
%struct.VFIOPCIDevice = type { %struct.PCIDevice, %struct.VFIODevice, %struct.VFIOINTx, i32, ptr, i64, i32, i64, ptr, i32, ptr, ptr, i32, i32, [6 x %struct.VFIOBAR], ptr, ptr, %struct.PCIHostDeviceAddress, %struct.QemuUUID, %struct.EventNotifier, %struct.EventNotifier, ptr, i32, i32, i32, i32, i32, i32, i32, i32, i32, i32, i32, i8, i8, i8, i8, i8, i8, i8, i8, i8, i8, i8, i8, i8, i8, i32, i8, i8, i8, ptr, %struct.Notifier }
%struct.PCIDevice = type { %struct.DeviceState, i8, i8, ptr, ptr, ptr, ptr, ptr, i32, %struct.PCIReqIDCache, [64 x i8], [7 x %struct.PCIIORegion], %struct.AddressSpace, %struct.MemoryRegion, %struct.MemoryRegion, ptr, ptr, [3 x ptr], i8, i8, i32, i8, i32, ptr, ptr, ptr, ptr, ptr, ptr, %struct.MemoryRegion, %struct.MemoryRegion, %struct.MemoryRegion, ptr, i8, i32, i8, %struct.PCIExpressDevice, ptr, ptr, i32, i8, %struct.MemoryRegion, i32, ptr, ptr, ptr, ptr, i16, %struct.DOECap, ptr, i32, i32 }
%struct.DeviceState = type { %struct.Object, ptr, ptr, i8, i8, i64, i32, i8, ptr, %struct.NamedGPIOListHead, %struct.NamedClockListHead, %struct.BusStateHead, i32, i32, i32, %struct.ResettableState, ptr, %struct.MemReentrancyGuard }
%struct.NamedGPIOListHead = type { ptr }
%struct.NamedClockListHead = type { ptr }
%struct.BusStateHead = type { ptr }
%struct.ResettableState = type { i32, i8, i8 }
%struct.MemReentrancyGuard = type { i8 }
%struct.PCIReqIDCache = type { ptr, i32 }
%struct.PCIIORegion = type { i64, i64, i8, ptr, ptr }
%struct.AddressSpace = type { %struct.rcu_head, ptr, ptr, ptr, i32, i32, ptr, %union.anon.4, %union.anon.5, i64, i64, %struct.QemuMutex, %struct.anon.6 }
%struct.rcu_head = type { ptr, ptr }
%union.anon.4 = type { %struct.QTailQLink }
%union.anon.5 = type { %struct.QTailQLink }
%struct.QemuMutex = type { %union.pthread_mutex_t, i8 }
%union.pthread_mutex_t = type { %struct.__pthread_mutex_s }
%struct.__pthread_mutex_s = type { i32, i32, i32, i32, i32, i16, i16, %struct.__pthread_internal_list }
%struct.__pthread_internal_list = type { ptr, ptr }
%struct.anon.6 = type { ptr }
%struct.PCIExpressDevice = type { i8, i8, i8, i16, %struct.PCIEAERLog, i16, i16, i16, %struct.PCIESriovPF, %struct.PCIESriovVF }
%struct.PCIEAERLog = type { i16, i16, ptr }
%struct.PCIESriovPF = type { i16, [7 x i8], ptr, ptr }
%struct.PCIESriovVF = type { ptr, i16 }
%struct.DOECap = type { ptr, i16, %struct.anon.7, %struct.anon.8, %struct.anon.9, ptr, ptr, i32, i32, i32, ptr, i16, i32 }
%struct.anon.7 = type { i8, i16 }
%struct.anon.8 = type { i8, i8, i8 }
%struct.anon.9 = type { i8, i8, i8, i8 }
%struct.VFIODevice = type { %struct.anon.10, %struct.anon.11, %struct.anon.12, ptr, ptr, ptr, ptr, ptr, i32, i32, i8, i8, i8, i8, i8, i32, i8, ptr, i32, i32, i32, ptr, ptr, i32, i32, i8, i8, i8, ptr, i32, ptr, ptr, %struct.anon.13 }
%struct.anon.10 = type { ptr, ptr }
%struct.anon.11 = type { ptr, ptr }
%struct.anon.12 = type { ptr, ptr }
%struct.anon.13 = type { ptr, ptr }
%struct.VFIOINTx = type { i8, i8, i8, %struct.EventNotifier, %struct.EventNotifier, %struct.PCIINTxRoute, i32, ptr }
%struct.PCIINTxRoute = type { i32, i32 }
%struct.VFIOBAR = type { %struct.VFIORegion, ptr, i64, i8, i8, i8, %struct.anon.14 }
%struct.VFIORegion = type { ptr, i64, ptr, i64, i32, i32, ptr, i8 }
%struct.anon.14 = type { ptr }
%struct.PCIHostDeviceAddress = type { i32, i32, i32, i32 }
%struct.QemuUUID = type { %union.anon.15 }
%union.anon.15 = type { %struct.anon.16 }
%struct.anon.16 = type { i32, i16, i16, i8, i8, [6 x i8] }
%struct.EventNotifier = type { i32, i32, i8 }
%struct.Notifier = type { ptr, %struct.anon.17 }
%struct.anon.17 = type { ptr, ptr }
%struct.VFIOMSIVector = type { %struct.EventNotifier, %struct.EventNotifier, ptr, i32, i8 }

@.str.11 = private unnamed_addr constant [22 x i8] c"../qemu/hw/vfio/pci.c\00", align 1
@vfio_route_change = internal global %struct.KVMRouteChange zeroinitializer, align 8
@kvm_state = external global ptr, align 8
@.str.38 = private unnamed_addr constant [28 x i8] c"vdev->defer_kvm_irq_routing\00", align 1
@__PRETTY_FUNCTION__.vfio_commit_kvm_msi_virq_batch = private unnamed_addr constant [53 x i8] c"void vfio_commit_kvm_msi_virq_batch(VFIOPCIDevice *)\00", align 1

; Function Attrs: nounwind sspstrong uwtable
define internal void @vfio_connect_kvm_msi_virq(ptr noundef %0) #0 {
  %2 = alloca ptr, align 8
  store ptr %0, ptr %2, align 8
  %3 = load ptr, ptr %2, align 8
  %4 = getelementptr inbounds nuw %struct.VFIOMSIVector, ptr %3, i32 0, i32 3
  %5 = load i32, ptr %4, align 8
  %6 = icmp slt i32 %5, 0
  br i1 %6, label %7, label %8

7:                                                ; preds = %1
  br label %35

8:                                                ; preds = %1
  %9 = load ptr, ptr %2, align 8
  %10 = getelementptr inbounds nuw %struct.VFIOMSIVector, ptr %9, i32 0, i32 1
  %11 = call i32 @event_notifier_init(ptr noundef %10, i32 noundef 0)
  %12 = icmp ne i32 %11, 0
  br i1 %12, label %13, label %14

13:                                               ; preds = %8
  br label %28

14:                                               ; preds = %8
  %15 = load ptr, ptr @kvm_state, align 8
  %16 = load ptr, ptr %2, align 8
  %17 = getelementptr inbounds nuw %struct.VFIOMSIVector, ptr %16, i32 0, i32 1
  %18 = load ptr, ptr %2, align 8
  %19 = getelementptr inbounds nuw %struct.VFIOMSIVector, ptr %18, i32 0, i32 3
  %20 = load i32, ptr %19, align 8
  %21 = call i32 @kvm_irqchip_add_irqfd_notifier_gsi(ptr noundef %15, ptr noundef %17, ptr noundef null, i32 noundef %20)
  %22 = icmp slt i32 %21, 0
  br i1 %22, label %23, label %24

23:                                               ; preds = %14
  br label %25

24:                                               ; preds = %14
  br label %35

25:                                               ; preds = %23
  %26 = load ptr, ptr %2, align 8
  %27 = getelementptr inbounds nuw %struct.VFIOMSIVector, ptr %26, i32 0, i32 1
  call void @event_notifier_cleanup(ptr noundef %27)
  br label %28

28:                                               ; preds = %25, %13
  %29 = load ptr, ptr @kvm_state, align 8
  %30 = load ptr, ptr %2, align 8
  %31 = getelementptr inbounds nuw %struct.VFIOMSIVector, ptr %30, i32 0, i32 3
  %32 = load i32, ptr %31, align 8
  call void @kvm_irqchip_release_virq(ptr noundef %29, i32 noundef %32)
  %33 = load ptr, ptr %2, align 8
  %34 = getelementptr inbounds nuw %struct.VFIOMSIVector, ptr %33, i32 0, i32 3
  store i32 -1, ptr %34, align 8
  br label %35

35:                                               ; preds = %28, %24, %7
  ret void
}

; Function Attrs: inlinehint nounwind sspstrong uwtable
define internal void @kvm_irqchip_commit_route_changes(ptr noundef %0) #3 {
  %2 = alloca ptr, align 8
  store ptr %0, ptr %2, align 8
  %3 = load ptr, ptr %2, align 8
  %4 = getelementptr inbounds nuw %struct.KVMRouteChange, ptr %3, i32 0, i32 1
  %5 = load i32, ptr %4, align 8
  %6 = icmp ne i32 %5, 0
  br i1 %6, label %7, label %13

7:                                                ; preds = %1
  %8 = load ptr, ptr %2, align 8
  %9 = getelementptr inbounds nuw %struct.KVMRouteChange, ptr %8, i32 0, i32 0
  %10 = load ptr, ptr %9, align 8
  call void @kvm_irqchip_commit_routes(ptr noundef %10)
  %11 = load ptr, ptr %2, align 8
  %12 = getelementptr inbounds nuw %struct.KVMRouteChange, ptr %11, i32 0, i32 1
  store i32 0, ptr %12, align 8
  br label %13

13:                                               ; preds = %7, %1
  ret void
}

; Function Attrs: nounwind sspstrong uwtable
define internal void @vfio_commit_kvm_msi_virq_batch(ptr noundef %0) #0 {
  %2 = alloca ptr, align 8
  %3 = alloca i32, align 4
  store ptr %0, ptr %2, align 8
  call void @llvm.lifetime.start.p0(i64 4, ptr %3) #19
  store i32 0, ptr %3, align 4, !annotation !4
  %4 = load ptr, ptr %2, align 8
  %5 = getelementptr inbounds nuw %struct.VFIOPCIDevice, ptr %4, i32 0, i32 48
  %6 = load i8, ptr %5, align 8, !range !9, !noundef !10
  %7 = trunc i8 %6 to i1
  br i1 %7, label %8, label %9

8:                                                ; preds = %1
  br label %10

9:                                                ; preds = %1
  call void @__assert_fail(ptr noundef @.str.38, ptr noundef @.str.11, i32 noundef 658, ptr noundef @__PRETTY_FUNCTION__.vfio_commit_kvm_msi_virq_batch) #25
  unreachable

10:                                               ; preds = %8
  %11 = load ptr, ptr %2, align 8
  %12 = getelementptr inbounds nuw %struct.VFIOPCIDevice, ptr %11, i32 0, i32 48
  store i8 0, ptr %12, align 8
  call void @kvm_irqchip_commit_route_changes(ptr noundef @vfio_route_change)
  store i32 0, ptr %3, align 4
  br label %13

13:                                               ; preds = %26, %10
  %14 = load i32, ptr %3, align 4
  %15 = load ptr, ptr %2, align 8
  %16 = getelementptr inbounds nuw %struct.VFIOPCIDevice, ptr %15, i32 0, i32 12
  %17 = load i32, ptr %16, align 16
  %18 = icmp slt i32 %14, %17
  br i1 %18, label %19, label %29

19:                                               ; preds = %13
  %20 = load ptr, ptr %2, align 8
  %21 = getelementptr inbounds nuw %struct.VFIOPCIDevice, ptr %20, i32 0, i32 10
  %22 = load ptr, ptr %21, align 16
  %23 = load i32, ptr %3, align 4
  %24 = sext i32 %23 to i64
  %25 = getelementptr inbounds %struct.VFIOMSIVector, ptr %22, i64 %24
  call void @vfio_connect_kvm_msi_virq(ptr noundef %25)
  br label %26

26:                                               ; preds = %19
  %27 = load i32, ptr %3, align 4
  %28 = add i32 %27, 1
  store i32 %28, ptr %3, align 4
  br label %13, !llvm.loop !14

29:                                               ; preds = %13
  call void @llvm.lifetime.end.p0(i64 4, ptr %3) #19
  ret void
}