; Function Attrs: nounwind sspstrong uwtable
define internal fastcc void @vfio_commit_kvm_msi_virq_batch(ptr noundef captures(none) %0) unnamed_addr #0 {
  %2 = getelementptr inbounds nuw i8, ptr %0, i64 3768
  %3 = load i8, ptr %2, align 8, !range !6, !noundef !7
  %4 = trunc nuw i8 %3 to i1
  br i1 %4, label %6, label %5

5:                                                ; preds = %1
  tail call void @__assert_fail(ptr noundef nonnull @.str.38, ptr noundef nonnull @.str.11, i32 noundef 658, ptr noundef nonnull @__PRETTY_FUNCTION__.vfio_commit_kvm_msi_virq_batch) #27
  unreachable

6:                                                ; preds = %1
  store i8 0, ptr %2, align 8
  %7 = load i32, ptr getelementptr inbounds nuw (i8, ptr @vfio_route_change, i64 8), align 8
  %.not.i = icmp eq i32 %7, 0
  br i1 %.not.i, label %kvm_irqchip_commit_route_changes.exit, label %8

8:                                                ; preds = %6
  %9 = load ptr, ptr @vfio_route_change, align 8
  tail call void @kvm_irqchip_commit_routes(ptr noundef %9) #26
  store i32 0, ptr getelementptr inbounds nuw (i8, ptr @vfio_route_change, i64 8), align 8
  br label %kvm_irqchip_commit_route_changes.exit

kvm_irqchip_commit_route_changes.exit:            ; preds = %6, %8
  %10 = getelementptr inbounds nuw i8, ptr %0, i64 3088
  %11 = load i32, ptr %10, align 16
  %12 = icmp sgt i32 %11, 0
  br i1 %12, label %.lr.ph, label %._crit_edge

.lr.ph:                                           ; preds = %kvm_irqchip_commit_route_changes.exit
  %13 = getelementptr inbounds nuw i8, ptr %0, i64 3072
  br label %14

14:                                               ; preds = %.lr.ph, %vfio_connect_kvm_msi_virq.exit
  %indvars.iv = phi i64 [ 0, %.lr.ph ], [ %indvars.iv.next, %vfio_connect_kvm_msi_virq.exit ]
  %15 = load ptr, ptr %13, align 16
  %16 = getelementptr inbounds nuw %struct.VFIOMSIVector, ptr %15, i64 %indvars.iv
  %17 = getelementptr inbounds nuw i8, ptr %16, i64 32
  %18 = load i32, ptr %17, align 8
  %19 = icmp slt i32 %18, 0
  br i1 %19, label %vfio_connect_kvm_msi_virq.exit, label %20

20:                                               ; preds = %14
  %21 = getelementptr inbounds nuw i8, ptr %16, i64 12
  %22 = tail call i32 @event_notifier_init(ptr noundef nonnull %21, i32 noundef 0) #26
  %.not.i6 = icmp eq i32 %22, 0
  br i1 %.not.i6, label %23, label %29

23:                                               ; preds = %20
  %24 = load ptr, ptr @kvm_state, align 8
  %25 = load i32, ptr %17, align 8
  %26 = tail call i32 @kvm_irqchip_add_irqfd_notifier_gsi(ptr noundef %24, ptr noundef nonnull %21, ptr noundef null, i32 noundef %25) #26
  %27 = icmp slt i32 %26, 0
  br i1 %27, label %28, label %vfio_connect_kvm_msi_virq.exit

28:                                               ; preds = %23
  tail call void @event_notifier_cleanup(ptr noundef nonnull %21) #26
  br label %29

29:                                               ; preds = %28, %20
  %30 = load ptr, ptr @kvm_state, align 8
  %31 = load i32, ptr %17, align 8
  tail call void @kvm_irqchip_release_virq(ptr noundef %30, i32 noundef %31) #26
  store i32 -1, ptr %17, align 8
  br label %vfio_connect_kvm_msi_virq.exit

vfio_connect_kvm_msi_virq.exit:                   ; preds = %14, %23, %29
  %indvars.iv.next = add nuw nsw i64 %indvars.iv, 1
  %32 = load i32, ptr %10, align 16
  %33 = sext i32 %32 to i64
  %34 = icmp slt i64 %indvars.iv.next, %33
  br i1 %34, label %14, label %._crit_edge, !llvm.loop !22

._crit_edge:                                      ; preds = %vfio_connect_kvm_msi_virq.exit, %kvm_irqchip_commit_route_changes.exit
  ret void
}